target datalayout = "e-m:e-p270:32:32-p271:32:32-p272:64:64-i64:64-i128:128-f80:128-n8:16:32:64-S128"
target triple = "x86_64-pc-linux-gnu"

%struct.ReindexErrorInfo = type { ptr, ptr, i8 }

@.str.89 = private unnamed_addr constant [43 x i8] c"while reindexing partitioned table \22%s.%s\22\00", align 1
@.str.90 = private unnamed_addr constant [43 x i8] c"while reindexing partitioned index \22%s.%s\22\00", align 1

; Function Attrs: nounwind uwtable
define internal void @reindex_error_callback(ptr noundef %0) #0 {
  %2 = alloca ptr, align 8
  %3 = alloca ptr, align 8
  store ptr %0, ptr %2, align 8
  call void @llvm.lifetime.start.p0(i64 8, ptr %3) #10
  %4 = load ptr, ptr %2, align 8
  store ptr %4, ptr %3, align 8
  %5 = load ptr, ptr %3, align 8
  %6 = getelementptr inbounds nuw %struct.ReindexErrorInfo, ptr %5, i32 0, i32 2
  %7 = load i8, ptr %6, align 8
  %8 = sext i8 %7 to i32
  %9 = icmp eq i32 %8, 112
  br i1 %9, label %10, label %19

10:                                               ; preds = %1
  %11 = call i32 @set_errcontext_domain(ptr noundef null)
  %12 = load ptr, ptr %3, align 8
  %13 = getelementptr inbounds nuw %struct.ReindexErrorInfo, ptr %12, i32 0, i32 1
  %14 = load ptr, ptr %13, align 8
  %15 = load ptr, ptr %3, align 8
  %16 = getelementptr inbounds nuw %struct.ReindexErrorInfo, ptr %15, i32 0, i32 0
  %17 = load ptr, ptr %16, align 8
  %18 = call i32 (ptr, ...) @errcontext_msg(ptr noundef @.str.89, ptr noundef %14, ptr noundef %17)
  br label %35

19:                                               ; preds = %1
  %20 = load ptr, ptr %3, align 8
  %21 = getelementptr inbounds nuw %struct.ReindexErrorInfo, ptr %20, i32 0, i32 2
  %22 = load i8, ptr %21, align 8
  %23 = sext i8 %22 to i32
  %24 = icmp eq i32 %23, 73
  br i1 %24, label %25, label %34

25:                                               ; preds = %19
  %26 = call i32 @set_errcontext_domain(ptr noundef null)
  %27 = load ptr, ptr %3, align 8
  %28 = getelementptr inbounds nuw %struct.ReindexErrorInfo, ptr %27, i32 0, i32 1
  %29 = load ptr, ptr %28, align 8
  %30 = load ptr, ptr %3, align 8
  %31 = getelementptr inbounds nuw %struct.ReindexErrorInfo, ptr %30, i32 0, i32 0
  %32 = load ptr, ptr %31, align 8
  %33 = call i32 (ptr, ...) @errcontext_msg(ptr noundef @.str.90, ptr noundef %29, ptr noundef %32)
  br label %34

34:                                               ; preds = %25, %19
  br label %35

35:                                               ; preds = %34, %10
  call void @llvm.lifetime.end.p0(i64 8, ptr %3) #10
  ret void
}