; Function Attrs: nounwind uwtable
define internal void @reindex_error_callback(ptr noundef readonly captures(none) %0) #0 {
  %2 = getelementptr inbounds nuw i8, ptr %0, i64 16
  %3 = load i8, ptr %2, align 8
  switch i8 %3, label %10 [
    i8 112, label %.sink.split
    i8 73, label %4
  ]

4:                                                ; preds = %1
  br label %.sink.split

.sink.split:                                      ; preds = %1, %4
  %.str.90.sink = phi ptr [ @.str.90, %4 ], [ @.str.89, %1 ]
  %5 = tail call i32 @set_errcontext_domain(ptr noundef null) #11
  %6 = getelementptr inbounds nuw i8, ptr %0, i64 8
  %7 = load ptr, ptr %6, align 8
  %8 = load ptr, ptr %0, align 8
  %9 = tail call i32 (ptr, ...) @errcontext_msg(ptr noundef nonnull %.str.90.sink, ptr noundef %7, ptr noundef %8) #11
  br label %10

10:                                               ; preds = %.sink.split, %1
  ret void
}